Certificate Request:
    Data:
        Version: 0 (0x0)
        Subject: C=C2, ST=JS22, L=WX22, O=ESP22, OU=ESP22, CN=Server22 CA/emailAddress=ESP22
        Subject Public Key Info:
            Public Key Algorithm: rsaEncryption
                Public-Key: (2048 bit)
                Modulus:
                    00:c2:ea:6d:ca:cc:23:59:6c:b5:62:47:21:1a:9e:
                    d4:60:fb:3f:8e:56:e8:a5:b7:51:a6:6b:ed:2b:0d:
                    c5:82:02:c3:30:b4:ea:c3:50:b7:5f:c0:2f:2c:5a:
                    b8:39:e9:dc:70:cb:00:4e:42:e1:31:3c:8e:ce:29:
                    2b:1b:b1:c3:ed:c1:79:19:e8:0d:22:80:f7:9b:26:
                    42:81:0d:a5:88:57:9f:9e:e9:a7:0b:22:d9:f4:88:
                    c0:c0:09:b3:41:7b:4b:3a:20:28:32:20:70:cc:11:
                    41:f7:f0:7e:92:fe:51:c5:e9:c3:e6:92:9d:e4:d8:
                    df:30:66:e8:ce:df:3c:8e:3a:30:86:51:9c:ae:ee:
                    71:7e:f1:d2:45:51:85:07:44:f4:26:c3:66:ff:ad:
                    cc:bf:20:a4:4e:e9:46:ca:c9:fc:1c:49:80:95:15:
                    fc:e2:e3:a1:7a:5b:31:46:12:40:4a:3f:98:c1:a5:
                    3d:54:6b:ed:82:54:07:07:d7:64:bf:63:8c:a4:cd:
                    9a:f7:b4:81:79:57:5f:69:a3:32:9e:05:fa:4c:93:
                    71:73:ed:9a:f8:c8:1f:03:e3:94:0e:f8:9b:81:7d:
                    d1:e2:52:05:a2:e9:f2:f6:ef:73:92:dd:c1:45:5a:
                    d0:83:a2:1b:1a:35:20:f6:23:a6:a9:9d:12:8d:88:
                    bb:6f
                Exponent: 65537 (0x10001)
        Attributes:
            a0:00
    Signature Algorithm: sha256WithRSAEncryption
         14:65:6c:a1:f5:53:57:dc:4c:ef:d4:3b:92:4a:17:00:2a:f9:
         8b:54:cc:9f:0a:f4:16:9e:cb:73:f6:e4:a4:bd:d8:b1:2c:fd:
         87:f1:db:ae:07:b6:f4:3a:45:8d:48:b6:19:b4:07:82:30:da:
         cc:d9:8e:9b:ae:f9:23:15:82:ff:32:5c:f6:39:6a:d3:f3:29:
         b6:ac:d2:8e:64:5a:89:f9:67:49:c8:ce:c3:4d:20:ea:4f:e0:
         02:e4:ab:d4:54:3d:fd:a0:a0:90:4b:bb:04:81:8f:8b:9f:fb:
         9c:3e:38:5f:98:4f:e1:ca:ca:73:49:ec:45:43:12:46:55:f4:
         93:83:a8:f1:59:f9:16:3f:e3:29:ea:c9:bd:32:cd:4a:78:c6:
         06:b0:a3:f4:6c:76:2d:9f:71:96:1a:1a:4d:a2:ed:29:19:ff:
         d5:d1:6b:6c:45:62:2c:f7:44:7f:4e:27:c6:7d:5f:06:57:4c:
         91:c6:d9:ca:38:d2:ac:56:45:4e:6d:6c:e3:1b:f9:d1:74:88:
         74:b8:6d:8f:95:05:b1:8e:2c:4a:78:20:dd:45:6b:81:fb:61:
         38:45:a5:6d:49:57:f2:29:ed:e9:4c:b7:33:86:5f:25:20:d9:
         0b:b3:11:76:6e:00:7d:ce:20:c1:b9:fb:17:67:23:5e:a6:00:
         a7:e4:db:c9
-----BEGIN CERTIFICATE REQUEST-----
MIICvDCCAaQCAQAwdzELMAkGA1UEBhMCQzIxDTALBgNVBAgMBEpTMjIxDTALBgNV
BAcMBFdYMjIxDjAMBgNVBAoMBUVTUDIyMQ4wDAYDVQQLDAVFU1AyMjEUMBIGA1UE
AwwLU2VydmVyMjIgQ0ExFDASBgkqhkiG9w0BCQEWBUVTUDIyMIIBIjANBgkqhkiG
9w0BAQEFAAOCAQ8AMIIBCgKCAQEAwuptyswjWWy1YkchGp7UYPs/jlbopbdRpmvt
Kw3FggLDMLTqw1C3X8AvLFq4OenccMsATkLhMTyOzikrG7HD7cF5GegNIoD3myZC
gQ2liFefnumnCyLZ9IjAwAmzQXtLOiAoMiBwzBFB9/B+kv5RxenD5pKd5NjfMGbo
zt88jjowhlGcru5xfvHSRVGFB0T0JsNm/63MvyCkTulGysn8HEmAlRX84uOhelsx
RhJASj+YwaU9VGvtglQHB9dkv2OMpM2a97SBeVdfaaMyngX6TJNxc+2a+MgfA+OU
DvibgX3R4lIFouny9u9zkt3BRVrQg6IbGjUg9iOmqZ0SjYi7bwIDAQABoAAwDQYJ
KoZIhvcNAQELBQADggEBABRlbKH1U1fcTO/UO5JKFwAq+YtUzJ8K9Baey3P25KS9
2LEs/Yfx264HtvQ6RY1Ithm0B4Iw2szZjpuu+SMVgv8yXPY5atPzKbas0o5kWon5
Z0nIzsNNIOpP4ALkq9RUPf2goJBLuwSBj4uf+5w+OF+YT+HKynNJ7EVDEkZV9JOD
qPFZ+RY/4ynqyb0yzUp4xgawo/Rsdi2fcZYaGk2i7SkZ/9XRa2xFYiz3RH9OJ8Z9
XwZXTJHG2co40qxWRU5tbOMb+dF0iHS4bY+VBbGOLEp4IN1Fa4H7YThFpW1JV/Ip
7elMtzOGXyUg2QuzEXZuAH3OIMG5+xdnI16mAKfk28k=
-----END CERTIFICATE REQUEST-----
