Certificate Request:
    Data:
        Version: 0 (0x0)
        Subject: C=C1, ST=JS1, L=WX1, O=ESP1, OU=ESP1, CN=Server1 CA/emailAddress=ESP1
        Subject Public Key Info:
            Public Key Algorithm: rsaEncryption
                Public-Key: (2048 bit)
                Modulus:
                    00:b2:3c:1b:48:74:dd:ed:24:05:d3:7c:d3:f0:77:
                    12:54:76:b4:47:0a:e3:67:93:7e:3a:81:fc:3d:22:
                    da:6b:5a:15:5f:58:1e:ab:de:e6:29:1e:af:e7:b7:
                    93:29:77:0e:15:98:f9:37:21:22:70:e6:b8:59:8d:
                    3d:1a:3f:df:f1:cc:eb:e2:2e:66:f5:db:f0:f3:02:
                    a2:a2:24:22:2a:03:fb:1b:fc:c7:f0:47:6f:41:47:
                    f5:71:35:b2:7f:7f:a2:99:b0:37:f7:29:86:7a:08:
                    1b:96:d9:fa:81:86:fb:22:e4:55:ac:3d:a8:d8:ca:
                    a2:df:55:90:e0:9e:f1:9f:70:10:f5:e4:2c:d3:14:
                    ec:bd:82:eb:68:1c:73:bf:5a:24:17:27:19:b8:df:
                    a0:f8:72:fe:0c:49:f5:51:ba:d5:77:be:ed:20:1a:
                    d9:b4:de:79:5e:35:f2:f9:e1:3e:08:af:89:28:c9:
                    4a:fa:75:c9:68:02:85:50:2f:a5:0e:84:77:bd:3c:
                    ec:8e:e1:4e:28:5f:ea:39:13:58:0e:f3:d8:18:29:
                    73:07:83:7d:8b:ed:79:d7:63:77:28:76:8b:6e:51:
                    05:ea:2c:37:63:d5:8a:83:f6:43:4d:05:25:03:5f:
                    34:e0:20:5a:76:54:d9:53:df:cd:c7:e6:e4:f0:fe:
                    3e:3d
                Exponent: 65537 (0x10001)
        Attributes:
            a0:00
    Signature Algorithm: sha256WithRSAEncryption
         9d:82:f4:0d:d6:3f:90:bc:13:74:d9:39:a4:50:d5:66:4b:e1:
         fe:94:d4:e3:94:8a:82:69:73:e9:a2:d4:5e:16:45:b2:4c:ee:
         c4:15:95:69:64:74:a9:a7:54:eb:b6:44:0f:c1:dc:87:16:c2:
         10:48:1b:8d:ac:fc:2f:b6:93:32:0d:df:4c:f2:58:84:7d:f5:
         c2:74:78:bd:a2:db:7a:36:d4:2f:c6:54:4a:4c:cc:53:6e:0f:
         79:4e:e8:f7:0d:7e:28:e0:ed:4f:30:45:f1:35:c8:8b:4c:24:
         2a:d7:f0:b9:fa:fd:14:07:ee:57:9c:86:ca:cb:9a:77:8b:46:
         87:17:03:b0:58:81:69:c7:07:67:4b:9f:b1:e9:ba:68:94:c3:
         eb:e4:b9:ac:0b:40:80:a5:d4:14:b2:42:04:1e:e5:ab:fa:e4:
         5b:3d:a2:b9:76:a6:47:7b:9e:5e:c2:66:cf:30:cb:0d:a1:a6:
         e5:01:23:34:e1:e2:9d:01:04:b3:21:6a:09:f9:e2:5e:e1:a6:
         f1:d6:92:c5:ec:1d:84:09:ba:7d:fb:b7:e2:16:46:b0:fe:64:
         a4:70:41:02:7e:48:20:2d:aa:89:e7:72:4d:70:28:d9:a1:c5:
         a5:f9:81:5d:60:aa:a4:c0:76:4d:ac:f0:c5:10:37:6b:73:77:
         96:f0:7c:92
-----BEGIN CERTIFICATE REQUEST-----
MIICtjCCAZ4CAQAwcTELMAkGA1UEBhMCQzExDDAKBgNVBAgMA0pTMTEMMAoGA1UE
BwwDV1gxMQ0wCwYDVQQKDARFU1AxMQ0wCwYDVQQLDARFU1AxMRMwEQYDVQQDDApT
ZXJ2ZXIxIENBMRMwEQYJKoZIhvcNAQkBFgRFU1AxMIIBIjANBgkqhkiG9w0BAQEF
AAOCAQ8AMIIBCgKCAQEAsjwbSHTd7SQF03zT8HcSVHa0RwrjZ5N+OoH8PSLaa1oV
X1geq97mKR6v57eTKXcOFZj5NyEicOa4WY09Gj/f8czr4i5m9dvw8wKioiQiKgP7
G/zH8EdvQUf1cTWyf3+imbA39ymGeggbltn6gYb7IuRVrD2o2Mqi31WQ4J7xn3AQ
9eQs0xTsvYLraBxzv1okFycZuN+g+HL+DEn1UbrVd77tIBrZtN55XjXy+eE+CK+J
KMlK+nXJaAKFUC+lDoR3vTzsjuFOKF/qORNYDvPYGClzB4N9i+1512N3KHaLblEF
6iw3Y9WKg/ZDTQUlA1804CBadlTZU9/Nx+bk8P4+PQIDAQABoAAwDQYJKoZIhvcN
AQELBQADggEBAJ2C9A3WP5C8E3TZOaRQ1WZL4f6U1OOUioJpc+mi1F4WRbJM7sQV
lWlkdKmnVOu2RA/B3IcWwhBIG42s/C+2kzIN30zyWIR99cJ0eL2i23o21C/GVEpM
zFNuD3lO6PcNfijg7U8wRfE1yItMJCrX8Ln6/RQH7lechsrLmneLRocXA7BYgWnH
B2dLn7HpumiUw+vkuawLQICl1BSyQgQe5av65Fs9orl2pkd7nl7CZs8wyw2hpuUB
IzTh4p0BBLMhagn54l7hpvHWksXsHYQJun37t+IWRrD+ZKRwQQJ+SCAtqonnck1w
KNmhxaX5gV1gqqTAdk2s8MUQN2tzd5bwfJI=
-----END CERTIFICATE REQUEST-----
